target datalayout = "e-m:e-p270:32:32-p271:32:32-p272:64:64-i64:64-i128:128-f80:128-n8:16:32:64-S128"
target triple = "x86_64-pc-linux-gnu"

%struct.ParallelContext = type { %struct.dlist_node, i32, i32, i32, i32, ptr, ptr, ptr, %struct.shm_toc_estimator, ptr, ptr, ptr, ptr, i32, ptr }
%struct.dlist_node = type { ptr, ptr }
%struct.shm_toc_estimator = type { i64, i64 }

@MyProc = external global ptr, align 8

; Function Attrs: nounwind uwtable
define internal ptr @ExecParallelSetupTupleQueues(ptr noundef %0, i1 noundef zeroext %1) #0 {
  %3 = alloca ptr, align 8
  %4 = alloca ptr, align 8
  %5 = alloca i8, align 1
  %6 = alloca ptr, align 8
  %7 = alloca ptr, align 8
  %8 = alloca i32, align 4
  %9 = alloca i32, align 4
  %10 = alloca ptr, align 8
  store ptr %0, ptr %4, align 8
  %11 = zext i1 %1 to i8
  store i8 %11, ptr %5, align 1
  call void @llvm.lifetime.start.p0(i64 8, ptr %6) #8
  call void @llvm.lifetime.start.p0(i64 8, ptr %7) #8
  call void @llvm.lifetime.start.p0(i64 4, ptr %8) #8
  %12 = load ptr, ptr %4, align 8
  %13 = getelementptr inbounds nuw %struct.ParallelContext, ptr %12, i32 0, i32 2
  %14 = load i32, ptr %13, align 4
  %15 = icmp eq i32 %14, 0
  br i1 %15, label %16, label %17

16:                                               ; preds = %2
  store ptr null, ptr %3, align 8
  store i32 1, ptr %9, align 4
  br label %79

17:                                               ; preds = %2
  %18 = load ptr, ptr %4, align 8
  %19 = getelementptr inbounds nuw %struct.ParallelContext, ptr %18, i32 0, i32 2
  %20 = load i32, ptr %19, align 4
  %21 = sext i32 %20 to i64
  %22 = mul i64 %21, 8
  %23 = call ptr @palloc(i64 noundef %22)
  store ptr %23, ptr %6, align 8
  %24 = load i8, ptr %5, align 1, !range !7, !noundef !8
  %25 = trunc i8 %24 to i1
  br i1 %25, label %36, label %26

26:                                               ; preds = %17
  %27 = load ptr, ptr %4, align 8
  %28 = getelementptr inbounds nuw %struct.ParallelContext, ptr %27, i32 0, i32 11
  %29 = load ptr, ptr %28, align 8
  %30 = load ptr, ptr %4, align 8
  %31 = getelementptr inbounds nuw %struct.ParallelContext, ptr %30, i32 0, i32 2
  %32 = load i32, ptr %31, align 4
  %33 = sext i32 %32 to i64
  %34 = call i64 @mul_size(i64 noundef 65536, i64 noundef %33)
  %35 = call ptr @shm_toc_allocate(ptr noundef %29, i64 noundef %34)
  store ptr %35, ptr %7, align 8
  br label %41

36:                                               ; preds = %17
  %37 = load ptr, ptr %4, align 8
  %38 = getelementptr inbounds nuw %struct.ParallelContext, ptr %37, i32 0, i32 11
  %39 = load ptr, ptr %38, align 8
  %40 = call ptr @shm_toc_lookup(ptr noundef %39, i64 noundef -2305843009213693947, i1 noundef zeroext false)
  store ptr %40, ptr %7, align 8
  br label %41

41:                                               ; preds = %36, %26
  store i32 0, ptr %8, align 4
  br label %42

42:                                               ; preds = %66, %41
  %43 = load i32, ptr %8, align 4
  %44 = load ptr, ptr %4, align 8
  %45 = getelementptr inbounds nuw %struct.ParallelContext, ptr %44, i32 0, i32 2
  %46 = load i32, ptr %45, align 4
  %47 = icmp slt i32 %43, %46
  br i1 %47, label %48, label %69

48:                                               ; preds = %42
  call void @llvm.lifetime.start.p0(i64 8, ptr %10) #8
  %49 = load ptr, ptr %7, align 8
  %50 = load i32, ptr %8, align 4
  %51 = sext i32 %50 to i64
  %52 = mul i64 %51, 65536
  %53 = getelementptr inbounds nuw i8, ptr %49, i64 %52
  %54 = call ptr @shm_mq_create(ptr noundef %53, i64 noundef 65536)
  store ptr %54, ptr %10, align 8
  %55 = load ptr, ptr %10, align 8
  %56 = load ptr, ptr @MyProc, align 8
  call void @shm_mq_set_receiver(ptr noundef %55, ptr noundef %56)
  %57 = load ptr, ptr %10, align 8
  %58 = load ptr, ptr %4, align 8
  %59 = getelementptr inbounds nuw %struct.ParallelContext, ptr %58, i32 0, i32 9
  %60 = load ptr, ptr %59, align 8
  %61 = call ptr @shm_mq_attach(ptr noundef %57, ptr noundef %60, ptr noundef null)
  %62 = load ptr, ptr %6, align 8
  %63 = load i32, ptr %8, align 4
  %64 = sext i32 %63 to i64
  %65 = getelementptr inbounds ptr, ptr %62, i64 %64
  store ptr %61, ptr %65, align 8
  call void @llvm.lifetime.end.p0(i64 8, ptr %10) #8
  br label %66

66:                                               ; preds = %48
  %67 = load i32, ptr %8, align 4
  %68 = add i32 %67, 1
  store i32 %68, ptr %8, align 4
  br label %42, !llvm.loop !10

69:                                               ; preds = %42
  %70 = load i8, ptr %5, align 1, !range !7, !noundef !8
  %71 = trunc i8 %70 to i1
  br i1 %71, label %77, label %72

72:                                               ; preds = %69
  %73 = load ptr, ptr %4, align 8
  %74 = getelementptr inbounds nuw %struct.ParallelContext, ptr %73, i32 0, i32 11
  %75 = load ptr, ptr %74, align 8
  %76 = load ptr, ptr %7, align 8
  call void @shm_toc_insert(ptr noundef %75, i64 noundef -2305843009213693947, ptr noundef %76)
  br label %77

77:                                               ; preds = %72, %69
  %78 = load ptr, ptr %6, align 8
  store ptr %78, ptr %3, align 8
  store i32 1, ptr %9, align 4
  br label %79

79:                                               ; preds = %77, %16
  call void @llvm.lifetime.end.p0(i64 4, ptr %8) #8
  call void @llvm.lifetime.end.p0(i64 8, ptr %7) #8
  call void @llvm.lifetime.end.p0(i64 8, ptr %6) #8
  %80 = load ptr, ptr %3, align 8
  ret ptr %80
}