; Function Attrs: nounwind uwtable
define internal fastcc ptr @ExecParallelSetupTupleQueues(ptr noundef readonly captures(none) %0, i1 noundef zeroext %1) unnamed_addr #0 {
  %3 = getelementptr inbounds nuw i8, ptr %0, i64 20
  %4 = load i32, ptr %3, align 4
  %5 = icmp eq i32 %4, 0
  br i1 %5, label %37, label %6

6:                                                ; preds = %2
  %7 = sext i32 %4 to i64
  %8 = shl nsw i64 %7, 3
  %9 = tail call ptr @palloc(i64 noundef %8) #9
  %10 = getelementptr inbounds nuw i8, ptr %0, i64 88
  %11 = load ptr, ptr %10, align 8
  br i1 %1, label %17, label %12

12:                                               ; preds = %6
  %13 = load i32, ptr %3, align 4
  %14 = sext i32 %13 to i64
  %15 = tail call i64 @mul_size(i64 noundef 65536, i64 noundef %14) #9
  %16 = tail call ptr @shm_toc_allocate(ptr noundef %11, i64 noundef %15) #9
  br label %19

17:                                               ; preds = %6
  %18 = tail call ptr @shm_toc_lookup(ptr noundef %11, i64 noundef -2305843009213693947, i1 noundef zeroext false) #9
  br label %19

19:                                               ; preds = %17, %12
  %.021 = phi ptr [ %18, %17 ], [ %16, %12 ]
  %20 = load i32, ptr %3, align 4
  %21 = icmp sgt i32 %20, 0
  br i1 %21, label %.lr.ph, label %._crit_edge

.lr.ph:                                           ; preds = %19
  %22 = getelementptr inbounds nuw i8, ptr %0, i64 72
  br label %23

23:                                               ; preds = %.lr.ph, %23
  %indvars.iv = phi i64 [ 0, %.lr.ph ], [ %indvars.iv.next, %23 ]
  %24 = shl nuw nsw i64 %indvars.iv, 16
  %25 = getelementptr inbounds nuw i8, ptr %.021, i64 %24
  %26 = tail call ptr @shm_mq_create(ptr noundef %25, i64 noundef 65536) #9
  %27 = load ptr, ptr @MyProc, align 8
  tail call void @shm_mq_set_receiver(ptr noundef %26, ptr noundef %27) #9
  %28 = load ptr, ptr %22, align 8
  %29 = tail call ptr @shm_mq_attach(ptr noundef %26, ptr noundef %28, ptr noundef null) #9
  %30 = getelementptr inbounds nuw ptr, ptr %9, i64 %indvars.iv
  store ptr %29, ptr %30, align 8
  %indvars.iv.next = add nuw nsw i64 %indvars.iv, 1
  %31 = load i32, ptr %3, align 4
  %32 = sext i32 %31 to i64
  %33 = icmp slt i64 %indvars.iv.next, %32
  br i1 %33, label %23, label %._crit_edge, !llvm.loop !8

._crit_edge:                                      ; preds = %23, %19
  br i1 %1, label %37, label %34

34:                                               ; preds = %._crit_edge
  %35 = getelementptr inbounds nuw i8, ptr %0, i64 88
  %36 = load ptr, ptr %35, align 8
  tail call void @shm_toc_insert(ptr noundef %36, i64 noundef -2305843009213693947, ptr noundef %.021) #9
  br label %37

37:                                               ; preds = %._crit_edge, %34, %2
  %.0 = phi ptr [ null, %2 ], [ %9, %34 ], [ %9, %._crit_edge ]
  ret ptr %.0
}